; Function Attrs: mustprogress nounwind uwtable
define hidden void @_ZN14Deoptimization35update_method_data_from_interpreterEP10MethodDataii(ptr noundef %0, i32 noundef %1, i32 noundef %2) local_unnamed_addr #0 align 2 {
_ZN11MutexLockerD2Ev.exit:
  %3 = alloca i32, align 4
  %4 = alloca i8, align 1
  %5 = alloca i8, align 1
  %6 = tail call align 8 ptr @llvm.threadlocal.address.p0(ptr align 8 @_ZN6Thread12_thr_currentE)
  %7 = load ptr, ptr %6, align 8
  %8 = getelementptr inbounds i8, ptr %7, i64 800
  %9 = load ptr, ptr %8, align 8
  %10 = getelementptr inbounds i8, ptr %9, i64 24
  %11 = load ptr, ptr %10, align 8
  %12 = getelementptr inbounds i8, ptr %9, i64 32
  %13 = load ptr, ptr %12, align 8
  %14 = getelementptr inbounds i8, ptr %9, i64 40
  %15 = load ptr, ptr %14, align 8
  %16 = getelementptr inbounds i8, ptr %9, i64 8
  %17 = load i64, ptr %16, align 8
  %18 = load i8, ptr @UseJVMCICompiler, align 1
  %19 = trunc i8 %18 to i1
  %20 = xor i1 %19, true
  %21 = getelementptr inbounds i8, ptr %0, i64 24
  tail call void @_ZN5Mutex28lock_without_safepoint_checkEv(ptr noundef nonnull align 8 dereferenceable(104) %21) #22
  %22 = call noundef ptr @_ZN14Deoptimization24query_update_method_dataEP10MethodDataiNS_11DeoptReasonEbbP6MethodRjRbS6_(ptr noundef nonnull %0, i32 noundef %1, i32 noundef %2, i1 noundef zeroext %20, i1 noundef zeroext false, ptr noundef null, ptr noundef nonnull align 4 dereferenceable(4) %3, ptr noundef nonnull align 1 dereferenceable(1) %4, ptr noundef nonnull align 1 dereferenceable(1) %5)
  tail call void @_ZN5Mutex6unlockEv(ptr noundef nonnull align 8 dereferenceable(104) %21) #22
  %23 = load ptr, ptr %11, align 8
  %.not.i.i.i.i = icmp eq ptr %23, null
  br i1 %.not.i.i.i.i, label %25, label %24

24:                                               ; preds = %_ZN11MutexLockerD2Ev.exit
  tail call void @_ZN5Arena17set_size_in_bytesEm(ptr noundef nonnull align 8 dereferenceable(48) %9, i64 noundef %17) #22
  tail call void @_ZN5Chunk9next_chopEPS_(ptr noundef nonnull %11) #22
  br label %25

25:                                               ; preds = %24, %_ZN11MutexLockerD2Ev.exit
  %26 = load ptr, ptr %12, align 8
  %.not8.i.i.i.i = icmp eq ptr %26, %13
  br i1 %.not8.i.i.i.i, label %_ZN12ResourceMarkD2Ev.exit, label %27

27:                                               ; preds = %25
  store ptr %11, ptr %10, align 8
  store ptr %13, ptr %12, align 8
  store ptr %15, ptr %14, align 8
  br label %_ZN12ResourceMarkD2Ev.exit

_ZN12ResourceMarkD2Ev.exit:                       ; preds = %25, %27
  ret void
}